target datalayout = "e-m:e-p270:32:32-p271:32:32-p272:64:64-i64:64-i128:128-f80:128-n8:16:32:64-S128"
target triple = "x86_64-pc-linux-gnu"

%struct.code = type { i8, i8, i16 }
%struct.z_stream_s = type { ptr, i32, i64, ptr, i32, i64, ptr, ptr, ptr, ptr, ptr, i32, i64, i64 }
%struct.inflate_state = type { i32, i32, i32, i32, i32, i32, i64, i64, ptr, i32, i32, i32, i32, ptr, i64, i32, i32, i32, i32, ptr, ptr, i32, i32, i32, i32, i32, i32, ptr, [320 x i16], [288 x i16], [1444 x %struct.code], i32, i32, i32 }

; Function Attrs: nounwind uwtable
define i32 @inflateReset(ptr noundef %0) #0 {
  %2 = alloca i32, align 4
  %3 = alloca ptr, align 8
  %4 = alloca ptr, align 8
  %5 = alloca i32, align 4
  store ptr %0, ptr %3, align 8, !tbaa !3
  call void @llvm.lifetime.start.p0(i64 8, ptr %4) #4
  %6 = load ptr, ptr %3, align 8, !tbaa !3
  %7 = icmp eq ptr %6, null
  br i1 %7, label %13, label %8

8:                                                ; preds = %1
  %9 = load ptr, ptr %3, align 8, !tbaa !3
  %10 = getelementptr inbounds nuw %struct.z_stream_s, ptr %9, i32 0, i32 7
  %11 = load ptr, ptr %10, align 8, !tbaa !8
  %12 = icmp eq ptr %11, null
  br i1 %12, label %13, label %14

13:                                               ; preds = %8, %1
  store i32 -2, ptr %2, align 4
  store i32 1, ptr %5, align 4
  br label %61

14:                                               ; preds = %8
  %15 = load ptr, ptr %3, align 8, !tbaa !3
  %16 = getelementptr inbounds nuw %struct.z_stream_s, ptr %15, i32 0, i32 7
  %17 = load ptr, ptr %16, align 8, !tbaa !8
  store ptr %17, ptr %4, align 8, !tbaa !14
  %18 = load ptr, ptr %4, align 8, !tbaa !14
  %19 = getelementptr inbounds nuw %struct.inflate_state, ptr %18, i32 0, i32 7
  store i64 0, ptr %19, align 8, !tbaa !16
  %20 = load ptr, ptr %3, align 8, !tbaa !3
  %21 = getelementptr inbounds nuw %struct.z_stream_s, ptr %20, i32 0, i32 5
  store i64 0, ptr %21, align 8, !tbaa !19
  %22 = load ptr, ptr %3, align 8, !tbaa !3
  %23 = getelementptr inbounds nuw %struct.z_stream_s, ptr %22, i32 0, i32 2
  store i64 0, ptr %23, align 8, !tbaa !20
  %24 = load ptr, ptr %3, align 8, !tbaa !3
  %25 = getelementptr inbounds nuw %struct.z_stream_s, ptr %24, i32 0, i32 6
  store ptr null, ptr %25, align 8, !tbaa !21
  %26 = load ptr, ptr %3, align 8, !tbaa !3
  %27 = getelementptr inbounds nuw %struct.z_stream_s, ptr %26, i32 0, i32 12
  store i64 1, ptr %27, align 8, !tbaa !22
  %28 = load ptr, ptr %4, align 8, !tbaa !14
  %29 = getelementptr inbounds nuw %struct.inflate_state, ptr %28, i32 0, i32 0
  store i32 0, ptr %29, align 8, !tbaa !23
  %30 = load ptr, ptr %4, align 8, !tbaa !14
  %31 = getelementptr inbounds nuw %struct.inflate_state, ptr %30, i32 0, i32 1
  store i32 0, ptr %31, align 4, !tbaa !24
  %32 = load ptr, ptr %4, align 8, !tbaa !14
  %33 = getelementptr inbounds nuw %struct.inflate_state, ptr %32, i32 0, i32 3
  store i32 0, ptr %33, align 4, !tbaa !25
  %34 = load ptr, ptr %4, align 8, !tbaa !14
  %35 = getelementptr inbounds nuw %struct.inflate_state, ptr %34, i32 0, i32 5
  store i32 32768, ptr %35, align 4, !tbaa !26
  %36 = load ptr, ptr %4, align 8, !tbaa !14
  %37 = getelementptr inbounds nuw %struct.inflate_state, ptr %36, i32 0, i32 8
  store ptr null, ptr %37, align 8, !tbaa !27
  %38 = load ptr, ptr %4, align 8, !tbaa !14
  %39 = getelementptr inbounds nuw %struct.inflate_state, ptr %38, i32 0, i32 10
  store i32 0, ptr %39, align 4, !tbaa !28
  %40 = load ptr, ptr %4, align 8, !tbaa !14
  %41 = getelementptr inbounds nuw %struct.inflate_state, ptr %40, i32 0, i32 11
  store i32 0, ptr %41, align 8, !tbaa !29
  %42 = load ptr, ptr %4, align 8, !tbaa !14
  %43 = getelementptr inbounds nuw %struct.inflate_state, ptr %42, i32 0, i32 12
  store i32 0, ptr %43, align 4, !tbaa !30
  %44 = load ptr, ptr %4, align 8, !tbaa !14
  %45 = getelementptr inbounds nuw %struct.inflate_state, ptr %44, i32 0, i32 14
  store i64 0, ptr %45, align 8, !tbaa !31
  %46 = load ptr, ptr %4, align 8, !tbaa !14
  %47 = getelementptr inbounds nuw %struct.inflate_state, ptr %46, i32 0, i32 15
  store i32 0, ptr %47, align 8, !tbaa !32
  %48 = load ptr, ptr %4, align 8, !tbaa !14
  %49 = getelementptr inbounds nuw %struct.inflate_state, ptr %48, i32 0, i32 30
  %50 = getelementptr inbounds [1444 x %struct.code], ptr %49, i64 0, i64 0
  %51 = load ptr, ptr %4, align 8, !tbaa !14
  %52 = getelementptr inbounds nuw %struct.inflate_state, ptr %51, i32 0, i32 27
  store ptr %50, ptr %52, align 8, !tbaa !33
  %53 = load ptr, ptr %4, align 8, !tbaa !14
  %54 = getelementptr inbounds nuw %struct.inflate_state, ptr %53, i32 0, i32 20
  store ptr %50, ptr %54, align 8, !tbaa !34
  %55 = load ptr, ptr %4, align 8, !tbaa !14
  %56 = getelementptr inbounds nuw %struct.inflate_state, ptr %55, i32 0, i32 19
  store ptr %50, ptr %56, align 8, !tbaa !35
  %57 = load ptr, ptr %4, align 8, !tbaa !14
  %58 = getelementptr inbounds nuw %struct.inflate_state, ptr %57, i32 0, i32 31
  store i32 1, ptr %58, align 8, !tbaa !36
  %59 = load ptr, ptr %4, align 8, !tbaa !14
  %60 = getelementptr inbounds nuw %struct.inflate_state, ptr %59, i32 0, i32 32
  store i32 -1, ptr %60, align 4, !tbaa !37
  store i32 0, ptr %2, align 4
  store i32 1, ptr %5, align 4
  br label %61

61:                                               ; preds = %14, %13
  call void @llvm.lifetime.end.p0(i64 8, ptr %4) #4
  %62 = load i32, ptr %2, align 4
  ret i32 %62
}

; Function Attrs: nounwind uwtable
define internal i32 @syncsearch(ptr noundef %0, ptr noundef %1, i32 noundef %2) #0 {
  %4 = alloca ptr, align 8
  %5 = alloca ptr, align 8
  %6 = alloca i32, align 4
  %7 = alloca i32, align 4
  %8 = alloca i32, align 4
  store ptr %0, ptr %4, align 8, !tbaa !115
  store ptr %1, ptr %5, align 8, !tbaa !44
  store i32 %2, ptr %6, align 4, !tbaa !38
  call void @llvm.lifetime.start.p0(i64 4, ptr %7) #4
  call void @llvm.lifetime.start.p0(i64 4, ptr %8) #4
  %9 = load ptr, ptr %4, align 8, !tbaa !115
  %10 = load i32, ptr %9, align 4, !tbaa !38
  store i32 %10, ptr %7, align 4, !tbaa !38
  store i32 0, ptr %8, align 4, !tbaa !38
  br label %11

11:                                               ; preds = %46, %3
  %12 = load i32, ptr %8, align 4, !tbaa !38
  %13 = load i32, ptr %6, align 4, !tbaa !38
  %14 = icmp ult i32 %12, %13
  br i1 %14, label %15, label %18

15:                                               ; preds = %11
  %16 = load i32, ptr %7, align 4, !tbaa !38
  %17 = icmp ult i32 %16, 4
  br label %18

18:                                               ; preds = %15, %11
  %19 = phi i1 [ false, %11 ], [ %17, %15 ]
  br i1 %19, label %20, label %49

20:                                               ; preds = %18
  %21 = load ptr, ptr %5, align 8, !tbaa !44
  %22 = load i32, ptr %8, align 4, !tbaa !38
  %23 = zext i32 %22 to i64
  %24 = getelementptr inbounds nuw i8, ptr %21, i64 %23
  %25 = load i8, ptr %24, align 1, !tbaa !45
  %26 = zext i8 %25 to i32
  %27 = load i32, ptr %7, align 4, !tbaa !38
  %28 = icmp ult i32 %27, 2
  %29 = select i1 %28, i32 0, i32 255
  %30 = icmp eq i32 %26, %29
  br i1 %30, label %31, label %34

31:                                               ; preds = %20
  %32 = load i32, ptr %7, align 4, !tbaa !38
  %33 = add i32 %32, 1
  store i32 %33, ptr %7, align 4, !tbaa !38
  br label %46

34:                                               ; preds = %20
  %35 = load ptr, ptr %5, align 8, !tbaa !44
  %36 = load i32, ptr %8, align 4, !tbaa !38
  %37 = zext i32 %36 to i64
  %38 = getelementptr inbounds nuw i8, ptr %35, i64 %37
  %39 = load i8, ptr %38, align 1, !tbaa !45
  %40 = icmp ne i8 %39, 0
  br i1 %40, label %41, label %42

41:                                               ; preds = %34
  store i32 0, ptr %7, align 4, !tbaa !38
  br label %45

42:                                               ; preds = %34
  %43 = load i32, ptr %7, align 4, !tbaa !38
  %44 = sub i32 4, %43
  store i32 %44, ptr %7, align 4, !tbaa !38
  br label %45

45:                                               ; preds = %42, %41
  br label %46

46:                                               ; preds = %45, %31
  %47 = load i32, ptr %8, align 4, !tbaa !38
  %48 = add i32 %47, 1
  store i32 %48, ptr %8, align 4, !tbaa !38
  br label %11, !llvm.loop !117

49:                                               ; preds = %18
  %50 = load i32, ptr %7, align 4, !tbaa !38
  %51 = load ptr, ptr %4, align 8, !tbaa !115
  store i32 %50, ptr %51, align 4, !tbaa !38
  %52 = load i32, ptr %8, align 4, !tbaa !38
  call void @llvm.lifetime.end.p0(i64 4, ptr %8) #4
  call void @llvm.lifetime.end.p0(i64 4, ptr %7) #4
  ret i32 %52
}

; Function Attrs: nounwind uwtable
define i32 @inflateSync(ptr noundef %0) #0 {
  %2 = alloca i32, align 4
  %3 = alloca ptr, align 8
  %4 = alloca i32, align 4
  %5 = alloca i64, align 8
  %6 = alloca i64, align 8
  %7 = alloca [4 x i8], align 1
  %8 = alloca ptr, align 8
  %9 = alloca i32, align 4
  store ptr %0, ptr %3, align 8, !tbaa !3
  call void @llvm.lifetime.start.p0(i64 4, ptr %4) #4
  call void @llvm.lifetime.start.p0(i64 8, ptr %5) #4
  call void @llvm.lifetime.start.p0(i64 8, ptr %6) #4
  call void @llvm.lifetime.start.p0(i64 4, ptr %7) #4
  call void @llvm.lifetime.start.p0(i64 8, ptr %8) #4
  %10 = load ptr, ptr %3, align 8, !tbaa !3
  %11 = icmp eq ptr %10, null
  br i1 %11, label %17, label %12

12:                                               ; preds = %1
  %13 = load ptr, ptr %3, align 8, !tbaa !3
  %14 = getelementptr inbounds nuw %struct.z_stream_s, ptr %13, i32 0, i32 7
  %15 = load ptr, ptr %14, align 8, !tbaa !8
  %16 = icmp eq ptr %15, null
  br i1 %16, label %17, label %18

17:                                               ; preds = %12, %1
  store i32 -2, ptr %2, align 4
  store i32 1, ptr %9, align 4
  br label %136

18:                                               ; preds = %12
  %19 = load ptr, ptr %3, align 8, !tbaa !3
  %20 = getelementptr inbounds nuw %struct.z_stream_s, ptr %19, i32 0, i32 7
  %21 = load ptr, ptr %20, align 8, !tbaa !8
  store ptr %21, ptr %8, align 8, !tbaa !14
  %22 = load ptr, ptr %3, align 8, !tbaa !3
  %23 = getelementptr inbounds nuw %struct.z_stream_s, ptr %22, i32 0, i32 1
  %24 = load i32, ptr %23, align 8, !tbaa !49
  %25 = icmp eq i32 %24, 0
  br i1 %25, label %26, label %32

26:                                               ; preds = %18
  %27 = load ptr, ptr %8, align 8, !tbaa !14
  %28 = getelementptr inbounds nuw %struct.inflate_state, ptr %27, i32 0, i32 15
  %29 = load i32, ptr %28, align 8, !tbaa !32
  %30 = icmp ult i32 %29, 8
  br i1 %30, label %31, label %32

31:                                               ; preds = %26
  store i32 -5, ptr %2, align 4
  store i32 1, ptr %9, align 4
  br label %136

32:                                               ; preds = %26, %18
  %33 = load ptr, ptr %8, align 8, !tbaa !14
  %34 = getelementptr inbounds nuw %struct.inflate_state, ptr %33, i32 0, i32 0
  %35 = load i32, ptr %34, align 8, !tbaa !23
  %36 = icmp ne i32 %35, 31
  br i1 %36, label %37, label %87

37:                                               ; preds = %32
  %38 = load ptr, ptr %8, align 8, !tbaa !14
  %39 = getelementptr inbounds nuw %struct.inflate_state, ptr %38, i32 0, i32 0
  store i32 31, ptr %39, align 8, !tbaa !23
  %40 = load ptr, ptr %8, align 8, !tbaa !14
  %41 = getelementptr inbounds nuw %struct.inflate_state, ptr %40, i32 0, i32 15
  %42 = load i32, ptr %41, align 8, !tbaa !32
  %43 = and i32 %42, 7
  %44 = load ptr, ptr %8, align 8, !tbaa !14
  %45 = getelementptr inbounds nuw %struct.inflate_state, ptr %44, i32 0, i32 14
  %46 = load i64, ptr %45, align 8, !tbaa !31
  %47 = zext i32 %43 to i64
  %48 = shl i64 %46, %47
  store i64 %48, ptr %45, align 8, !tbaa !31
  %49 = load ptr, ptr %8, align 8, !tbaa !14
  %50 = getelementptr inbounds nuw %struct.inflate_state, ptr %49, i32 0, i32 15
  %51 = load i32, ptr %50, align 8, !tbaa !32
  %52 = and i32 %51, 7
  %53 = load ptr, ptr %8, align 8, !tbaa !14
  %54 = getelementptr inbounds nuw %struct.inflate_state, ptr %53, i32 0, i32 15
  %55 = load i32, ptr %54, align 8, !tbaa !32
  %56 = sub i32 %55, %52
  store i32 %56, ptr %54, align 8, !tbaa !32
  store i32 0, ptr %4, align 4, !tbaa !38
  br label %57

57:                                               ; preds = %62, %37
  %58 = load ptr, ptr %8, align 8, !tbaa !14
  %59 = getelementptr inbounds nuw %struct.inflate_state, ptr %58, i32 0, i32 15
  %60 = load i32, ptr %59, align 8, !tbaa !32
  %61 = icmp uge i32 %60, 8
  br i1 %61, label %62, label %79

62:                                               ; preds = %57
  %63 = load ptr, ptr %8, align 8, !tbaa !14
  %64 = getelementptr inbounds nuw %struct.inflate_state, ptr %63, i32 0, i32 14
  %65 = load i64, ptr %64, align 8, !tbaa !31
  %66 = trunc i64 %65 to i8
  %67 = load i32, ptr %4, align 4, !tbaa !38
  %68 = add i32 %67, 1
  store i32 %68, ptr %4, align 4, !tbaa !38
  %69 = zext i32 %67 to i64
  %70 = getelementptr inbounds nuw [4 x i8], ptr %7, i64 0, i64 %69
  store i8 %66, ptr %70, align 1, !tbaa !45
  %71 = load ptr, ptr %8, align 8, !tbaa !14
  %72 = getelementptr inbounds nuw %struct.inflate_state, ptr %71, i32 0, i32 14
  %73 = load i64, ptr %72, align 8, !tbaa !31
  %74 = lshr i64 %73, 8
  store i64 %74, ptr %72, align 8, !tbaa !31
  %75 = load ptr, ptr %8, align 8, !tbaa !14
  %76 = getelementptr inbounds nuw %struct.inflate_state, ptr %75, i32 0, i32 15
  %77 = load i32, ptr %76, align 8, !tbaa !32
  %78 = sub i32 %77, 8
  store i32 %78, ptr %76, align 8, !tbaa !32
  br label %57, !llvm.loop !114

79:                                               ; preds = %57
  %80 = load ptr, ptr %8, align 8, !tbaa !14
  %81 = getelementptr inbounds nuw %struct.inflate_state, ptr %80, i32 0, i32 26
  store i32 0, ptr %81, align 4, !tbaa !85
  %82 = load ptr, ptr %8, align 8, !tbaa !14
  %83 = getelementptr inbounds nuw %struct.inflate_state, ptr %82, i32 0, i32 26
  %84 = getelementptr inbounds [4 x i8], ptr %7, i64 0, i64 0
  %85 = load i32, ptr %4, align 4, !tbaa !38
  %86 = call i32 @syncsearch(ptr noundef %83, ptr noundef %84, i32 noundef %85)
  br label %87

87:                                               ; preds = %79, %32
  %88 = load ptr, ptr %8, align 8, !tbaa !14
  %89 = getelementptr inbounds nuw %struct.inflate_state, ptr %88, i32 0, i32 26
  %90 = load ptr, ptr %3, align 8, !tbaa !3
  %91 = getelementptr inbounds nuw %struct.z_stream_s, ptr %90, i32 0, i32 0
  %92 = load ptr, ptr %91, align 8, !tbaa !48
  %93 = load ptr, ptr %3, align 8, !tbaa !3
  %94 = getelementptr inbounds nuw %struct.z_stream_s, ptr %93, i32 0, i32 1
  %95 = load i32, ptr %94, align 8, !tbaa !49
  %96 = call i32 @syncsearch(ptr noundef %89, ptr noundef %92, i32 noundef %95)
  store i32 %96, ptr %4, align 4, !tbaa !38
  %97 = load i32, ptr %4, align 4, !tbaa !38
  %98 = load ptr, ptr %3, align 8, !tbaa !3
  %99 = getelementptr inbounds nuw %struct.z_stream_s, ptr %98, i32 0, i32 1
  %100 = load i32, ptr %99, align 8, !tbaa !49
  %101 = sub i32 %100, %97
  store i32 %101, ptr %99, align 8, !tbaa !49
  %102 = load i32, ptr %4, align 4, !tbaa !38
  %103 = load ptr, ptr %3, align 8, !tbaa !3
  %104 = getelementptr inbounds nuw %struct.z_stream_s, ptr %103, i32 0, i32 0
  %105 = load ptr, ptr %104, align 8, !tbaa !48
  %106 = zext i32 %102 to i64
  %107 = getelementptr inbounds nuw i8, ptr %105, i64 %106
  store ptr %107, ptr %104, align 8, !tbaa !48
  %108 = load i32, ptr %4, align 4, !tbaa !38
  %109 = zext i32 %108 to i64
  %110 = load ptr, ptr %3, align 8, !tbaa !3
  %111 = getelementptr inbounds nuw %struct.z_stream_s, ptr %110, i32 0, i32 2
  %112 = load i64, ptr %111, align 8, !tbaa !20
  %113 = add i64 %112, %109
  store i64 %113, ptr %111, align 8, !tbaa !20
  %114 = load ptr, ptr %8, align 8, !tbaa !14
  %115 = getelementptr inbounds nuw %struct.inflate_state, ptr %114, i32 0, i32 26
  %116 = load i32, ptr %115, align 4, !tbaa !85
  %117 = icmp ne i32 %116, 4
  br i1 %117, label %118, label %119

118:                                              ; preds = %87
  store i32 -3, ptr %2, align 4
  store i32 1, ptr %9, align 4
  br label %136

119:                                              ; preds = %87
  %120 = load ptr, ptr %3, align 8, !tbaa !3
  %121 = getelementptr inbounds nuw %struct.z_stream_s, ptr %120, i32 0, i32 2
  %122 = load i64, ptr %121, align 8, !tbaa !20
  store i64 %122, ptr %5, align 8, !tbaa !51
  %123 = load ptr, ptr %3, align 8, !tbaa !3
  %124 = getelementptr inbounds nuw %struct.z_stream_s, ptr %123, i32 0, i32 5
  %125 = load i64, ptr %124, align 8, !tbaa !19
  store i64 %125, ptr %6, align 8, !tbaa !51
  %126 = load ptr, ptr %3, align 8, !tbaa !3
  %127 = call i32 @inflateReset(ptr noundef %126)
  %128 = load i64, ptr %5, align 8, !tbaa !51
  %129 = load ptr, ptr %3, align 8, !tbaa !3
  %130 = getelementptr inbounds nuw %struct.z_stream_s, ptr %129, i32 0, i32 2
  store i64 %128, ptr %130, align 8, !tbaa !20
  %131 = load i64, ptr %6, align 8, !tbaa !51
  %132 = load ptr, ptr %3, align 8, !tbaa !3
  %133 = getelementptr inbounds nuw %struct.z_stream_s, ptr %132, i32 0, i32 5
  store i64 %131, ptr %133, align 8, !tbaa !19
  %134 = load ptr, ptr %8, align 8, !tbaa !14
  %135 = getelementptr inbounds nuw %struct.inflate_state, ptr %134, i32 0, i32 0
  store i32 11, ptr %135, align 8, !tbaa !23
  store i32 0, ptr %2, align 4
  store i32 1, ptr %9, align 4
  br label %136

136:                                              ; preds = %119, %118, %31, %17
  call void @llvm.lifetime.end.p0(i64 8, ptr %8) #4
  call void @llvm.lifetime.end.p0(i64 4, ptr %7) #4
  call void @llvm.lifetime.end.p0(i64 8, ptr %6) #4
  call void @llvm.lifetime.end.p0(i64 8, ptr %5) #4
  call void @llvm.lifetime.end.p0(i64 4, ptr %4) #4
  %137 = load i32, ptr %2, align 4
  ret i32 %137
}